(lp0
I1
aI3
aI1
aI2
aI1
aI1
aI1
aI1
aI1
aI1
aI1
aI2
aI8
aI2
aI2
aI1
aI1
aI1
aI1
aI1
aI1
aI1
aI1
aI1
aI1
aI1
aI1
aI1
aI1
aI1
aI2
aI1
aI1
aI1
aI1
aI1
aI1
aI4
aI1
aI1
aI1
aI1
aI1
aI2
aI5
aI1
aI2
aI2
aI1
aI4
aI1
aI1
aI2
aI14
aI1
aI1
aI1
aI1
aI1
aI2
aI1
aI1
aI3
aI1
aI1
aI1
aI1
aI1
aI2
aI1
aI3
aI1
aI1
aI1
aI1
aI2
aI1
aI1
aI2
aI1
aI1
aI1
aI3
aI2
aI2
aI1
aI1
aI1
aI2
aI2
aI2
aI1
aI1
aI1
aI1
aI2
aI3
aI1
aI1
aI1
aI1
aI1
aI1
aI1
aI1
aI1
aI2
aI1
aI2
aI3
aI2
aI2
aI1
aI2
aI1
aI1
aI1
aI2
aI2
aI1
aI1
aI1
aI1
aI2
aI1
aI1
aI1
aI1
aI2
aI1
aI1
aI1
aI1
aI1
aI2
aI1
aI1
aI1
aI1
aI1
aI1
aI1
aI2
aI1
aI1
aI1
aI2
aI1
aI2
aI1
aI1
aI2
aI1
aI2
aI2
aI1
aI2
aI3
aI1
aI1
aI1
aI1
aI2
aI4
aI1
aI1
aI1
aI3
aI4
aI1
aI1
aI1
aI1
aI1
aI1
aI1
aI1
aI1
aI1
aI1
aI1
aI1
aI1
aI1
aI1
aI1
aI1
aI1
aI1
aI1
aI2
aI1
aI5
aI1
aI1
aI1
aI1
aI1
aI1
aI1
aI1
aI1
aI1
aI3
aI2
aI1
aI1
aI1
aI1
aI1
aI1
aI2
aI2
aI1
aI4
aI1
aI2
aI2
aI1
aI1
aI2
aI1
aI1
aI1
aI1
aI1
aI1
aI1
aI1
aI1
aI1
aI1
aI1
aI1
aI2
aI4
aI1
aI6
aI1
aI2
aI1
aI2
aI2
aI1
aI1
aI1
aI2
aI1
aI1
aI2
aI4
aI1
aI1
aI8
aI2
aI1
aI1
aI3
aI1
aI1
aI1
aI1
aI1
aI1
aI1
aI2
aI2
aI2
aI1
aI1
aI2
aI3
aI1
aI1
aI2
aI15
aI1
aI1
aI1
aI9
aI4
aI3
aI1
aI1
aI4
aI11
aI1
aI2
aI2
aI1
aI1
aI2
aI1
aI1
aI1
aI1
aI2
aI2
aI1
aI1
aI1
aI1
aI1
aI2
aI2
aI2
aI1
aI1
aI3
aI1
aI1
aI2
aI1
aI1
aI4
aI1
aI2
aI1
aI1
aI1
aI2
aI1
aI2
aI1
aI1
aI1
aI1
aI1
aI1
aI3
aI1
aI2
aI5
aI1
aI1
aI1
aI1
aI1
aI1
aI1
aI1
aI1
aI8
aI10
aI1
aI2
aI1
aI4
aI2
aI1
aI3
aI1
aI2
aI5
aI1
aI1
aI3
aI1
aI1
aI1
aI1
aI1
aI2
aI2
aI1
aI1
aI1
aI1
aI1
aI1
aI1
aI1
aI1
aI1
aI2
aI1
aI1
aI1
aI1
aI2
aI1
aI1
aI1
aI7
aI1
aI1
aI3
aI1
aI1
aI1
aI1
aI1
aI6
aI1
aI1
aI1
aI1
aI5
aI1
aI1
aI5
aI1
aI2
aI3
aI3
aI3
aI1
aI1
aI2
aI1
aI1
aI1
aI1
aI2
aI1
aI1
aI6
aI2
aI1
aI1
aI1
aI1
aI1
aI2
aI1
aI2
aI1
aI1
aI2
aI2
aI1
aI5
aI2
aI3
aI1
aI1
aI7
aI1
aI1
aI1
aI1
aI2
aI1
aI1
aI1
aI3
aI1
aI1
aI1
aI1
aI1
aI5
aI1
aI2
aI2
aI1
aI1
aI1
aI1
aI2
aI1
aI1
aI1
aI2
aI1
aI1
aI3
aI1
aI2
aI2
aI1
aI1
aI1
aI1
aI2
aI2
aI2
aI1
aI1
aI1
aI2
aI2
aI3
aI1
aI1
aI1
aI1
aI1
aI1
aI1
aI1
aI1
aI1
aI1
aI2
aI2
aI1
aI3
aI4
aI1
aI1
aI1
aI18
aI1
aI1
aI1
aI1
aI1
aI2
aI3
aI1
aI1
aI2
aI1
aI3
aI1
aI1
aI3
aI1
aI8
aI4
aI4
aI1
aI1
aI2
aI4
aI4
aI2
aI1
aI6
aI9
aI6
aI7
aI1
aI2
aI52
aI5
aI44
aI1
aI2
aI30
aI32
aI8
aI5
aI2
aI6
aI4
aI2
aI4
aI2
aI1
aI3
aI2
aI1
aI4
aI2
aI2
aI5
aI1
aI1
aI2
aI1
aI4
aI1
aI1
aI4
aI1
aI2
aI1
aI2
aI2
aI2
aI2
aI1
aI1
aI2
aI1
aI1
aI1
aI8
aI2
aI1
aI1
aI1
aI4
aI1
aI2
aI1
aI3
aI1
aI1
aI1
aI1
aI1
aI1
aI1
aI2
aI1
aI2
aI2
aI4
aI3
aI1
aI4
aI1
aI2
aI2
aI1
aI1
aI2
aI4
aI1
aI2
aI1
aI1
aI10
aI1
aI2
aI1
aI1
aI3
aI1
aI1
aI4
aI1
aI1
aI2
aI1
aI2
aI1
aI1
aI2
aI2
aI2
aI1
aI3
aI3
aI1
aI1
aI1
aI1
aI1
aI4
aI1
aI2
aI1
aI1
aI2
aI1
aI1
aI1
aI2
aI1
aI1
aI1
aI2
aI1
aI1
aI1
aI1
aI1
aI1
aI1
aI2
aI3
aI1
aI2
aI1
aI1
aI1
aI1
aI2
aI1
aI2
aI3
aI1
aI1
aI2
aI3
aI1
aI1
aI1
aI1
aI1
aI3
aI1
aI1
aI1
aI1
aI7
aI1
aI1
aI2
aI2
aI5
aI1
aI4
aI1
aI2
aI1
aI2
aI1
aI1
aI2
aI1
aI1
aI1
aI1
aI1
aI1
aI1
aI1
aI2
aI1
aI1
aI12
aI1
aI7
aI2
aI2
aI1
aI1
aI2
aI3
aI1
aI1
aI1
aI1
aI1
aI1
aI2
aI1
aI1
aI1
aI1
aI1
aI1
aI1
aI1
aI1
aI2
aI2
aI1
aI1
aI1
aI1
aI1
aI1
aI1
aI1
aI1
aI1
aI2
aI1
aI2
aI1
aI2
aI2
aI1
aI9
aI1
aI2
aI1
aI1
aI1
aI1
aI2
aI2
aI2
aI1
aI3
aI4
aI2
aI1
aI1
aI2
aI1
aI1
aI2
aI1
aI3
aI1
aI1
aI2
aI3
aI1
aI1
aI1
aI1
aI1
aI2
aI1
aI1
aI1
aI1
aI2
aI1
aI1
aI2
aI2
aI2
aI2
aI2
aI1
aI2
aI1
aI4
aI1
aI2
aI1
aI1
aI1
aI2
aI1
aI1
aI1
aI1
aI2
aI3
aI1
aI1
aI1
aI2
aI1
aI1
aI1
aI1
aI1
aI1
aI1
aI3
aI7
aI1
aI1
aI7
aI6
aI1
aI1
aI1
aI1
aI3
aI1
aI2
aI2
aI2
aI1
aI1
aI1
aI1
aI2
aI1
aI2
aI1
aI1
aI2
aI1
aI2
aI1
aI3
aI4
aI2
aI1
aI2
aI1
aI1
aI1
aI1
aI3
aI1
aI1
aI1
aI2
aI1
aI1
aI2
aI1
aI1
aI1
aI5
aI6
aI1
aI1
aI1
aI1
aI1
aI1
aI5
aI1
aI1
aI1
aI1
aI1
aI2
aI1
aI1
aI1
aI8
aI1
aI1
aI2
aI1
aI2
aI1
aI1
aI1
aI1
aI1
aI3
aI6
aI1
aI1
aI1
aI1
aI1
aI2
aI7
aI1
aI11
aI1
aI1
aI1
aI2
aI1
aI3
aI7
aI3
aI1
aI1
aI2
aI1
aI1
aI1
aI2
aI2
aI2
aI1
aI1
aI2
aI1
aI1
aI1
aI1
aI1
aI1
aI1
aI1
aI1
aI1
aI1
aI1
aI1
aI2
aI5
aI1
aI1
aI1
aI1
aI1
aI5
aI1
aI1
aI2
aI1
aI6
aI2
aI1
aI3
aI7
aI1
aI2
aI1
aI4
aI1
aI2
aI1
aI1
aI1
aI1
aI1
aI1
aI1
aI2
aI1
aI1
aI4
aI1
aI1
aI1
aI1
aI1
aI1
aI1
aI1
aI1
aI4
aI1
aI1
aI1
aI1
aI4
aI1
aI1
aI1
aI1
aI1
aI1
aI1
aI1
aI1
aI2
aI2
aI2
aI2
aI1
aI1
aI1
aI1
aI1
aI1
aI8
aI1
aI1
aI2
aI2
aI1
aI1
aI1
aI3
aI1
aI1
aI2
aI1
aI1
aI1
aI1
aI1
aI1
aI1
aI1
aI1
aI1
aI2
aI1
aI1
aI1
aI1
aI1
aI2
aI2
aI1
aI2
aI4
aI2
aI1
aI5
aI4
aI1
aI2
aI3
aI1
aI1
aI4
aI1
aI2
aI4
aI2
aI1
aI2
aI2
aI1
aI2
aI1
aI1
aI4
aI2
aI3
aI2
aI1
aI5
aI2
aI1
aI1
aI2
aI1
aI1
aI1
aI4
aI1
aI1
aI1
aI11
aI3
aI1
aI2
aI1
aI1
aI1
aI1
aI1
aI2
aI1
aI1
aI1
aI1
aI1
aI1
aI1
aI1
aI1
aI2
aI2
aI1
aI2
aI1
aI2
aI1
aI1
aI2
aI3
aI1
aI1
aI1
aI1
aI1
aI1
aI2
aI1
aI1
aI1
aI2
aI2
aI1
aI2
aI1
aI1
aI1
aI1
aI1
aI2
aI1
aI1
aI1
aI2
aI2
aI2
aI1
aI4
aI5
aI1
aI2
aI2
aI1
aI7
aI3
aI1
aI10
aI2
aI1
aI3
aI1
aI1
aI1
aI1
aI3
aI2
aI1
aI1
aI1
aI1
aI1
aI1
aI2
aI2
aI2
aI3
aI1
aI1
aI2
aI1
aI5
aI1
aI2
aI1
aI1
aI4
aI1
aI2
aI1
aI4
aI1
aI1
aI1
aI2
aI3
aI3
aI4
aI4
aI1
aI4
aI3
aI2
aI1
aI1
aI1
aI2
aI2
aI1
aI1
aI3
aI1
aI1
aI8
aI2
aI1
aI1
aI1
aI1
aI1
aI1
aI1
aI1
aI2
aI2
aI6
aI1
aI1
aI2
aI1
aI2
aI5
aI1
aI1
aI1
aI1
aI2
aI1
aI13
aI1
aI1
aI1
aI2
aI2
aI1
aI1
aI1
aI1
aI2
aI2
aI1
aI1
aI2
aI1
aI1
aI1
aI1
aI1
aI1
aI4
aI2
aI1
aI1
aI1
aI3
aI1
aI5
aI1
aI1
aI1
aI1
aI1
aI2
aI1
aI1
aI1
aI2
aI1
aI1
aI1
aI1
aI1
aI2
aI1
aI2
aI1
aI1
aI4
aI3
aI1
aI1
aI2
aI1
aI1
aI1
aI1
aI1
aI2
aI2
aI1
aI1
aI1
aI1
aI2
aI2
aI1
aI1
aI1
aI1
aI1
aI7
aI2
aI1
aI2
aI1
aI1
aI1
aI1
aI2
aI1
aI2
aI3
aI1
aI1
aI1
aI1
aI4
aI3
aI1
aI1
aI1
aI2
aI1
aI1
aI3
aI2
aI1
aI1
aI2
aI1
aI1
aI2
aI1
aI2
aI1
aI2
aI1
aI1
aI1
aI2
aI1
aI1
aI1
aI1
aI1
aI2
aI1
aI1
aI2
aI3
aI2
aI1
aI1
aI1
aI3
aI1
aI2
aI1
aI1
aI1
aI4
aI4
aI8
aI1
aI2
aI4
aI1
aI1
aI1
aI1
aI1
aI1
aI1
aI1
aI1
aI1
aI2
aI4
aI3
aI1
aI1
aI1
aI1
aI1
aI1
aI5
aI1
aI1
aI1
aI2
aI5
aI1
aI6
aI1
aI5
aI1
aI1
aI1
aI1
aI1
aI1
aI2
aI1
aI1
aI1
aI1
aI4
aI7
aI1
aI1
aI1
aI1
aI1
aI1
aI1
aI1
aI1
aI2
aI1
aI2
aI1
aI1
aI2
aI1
aI1
aI1
aI3
aI1
aI1
aI1
aI2
aI1
aI1
aI2
aI1
aI4
aI2
aI1
aI2
aI1
aI1
aI7
aI1
aI1
aI1
aI1
aI1
aI1
aI1
aI1
aI1
aI2
aI2
aI1
aI1
aI1
aI3
aI1
aI2
aI3
aI1
aI1
aI1
aI1
aI1
aI1
aI1
aI1
aI1
aI1
aI2
aI1
aI1
aI1
aI1
aI1
aI2
aI1
aI1
aI1
aI5
aI1
aI1
aI2
aI1
aI2
aI1
aI1
aI1
aI1
aI1
aI8
aI2
aI3
aI1
aI2
aI1
aI8
aI1
aI1
aI3
aI8
aI2
aI1
aI1
aI1
aI1
aI1
aI1
aI3
aI2
aI9
aI1
aI1
aI1
aI2
aI1
aI1
aI1
aI1
aI2
aI13
aI2
aI3
aI1
aI1
aI1
aI1
aI1
aI1
aI1
aI1
aI1
aI2
aI2
aI1
aI1
aI1
aI1
aI2
aI1
aI1
aI2
aI2
aI1
aI1
aI2
aI1
aI3
aI1
aI1
aI3
aI3
aI1
aI2
aI1
aI1
aI1
aI2
aI3
aI1
aI1
aI1
aI1
aI1
aI1
aI2
aI2
aI1
aI1
aI2
aI1
aI1
aI1
aI1
aI1
aI1
aI2
aI1
aI1
aI13
aI1
aI5
aI2
aI1
aI1
aI1
aI1
aI5
aI1
aI1
aI5
aI2
aI1
aI2
aI1
aI1
aI1
aI1
aI1
aI2
aI3
aI1
aI1
aI1
aI1
aI1
aI1
aI1
aI1
aI3
aI3
aI1
aI2
aI1
aI1
aI1
aI1
aI2
aI4
aI2
aI3
aI1
aI1
aI3
aI1
aI1
aI1
aI1
aI1
aI1
aI1
aI1
aI1
aI1
aI1
aI1
aI1
aI1
aI1
aI1
aI4
aI4
aI2
aI4
aI1
aI1
aI1
aI3
aI1
aI1
aI1
aI2
aI1
aI1
aI3
aI1
aI1
aI1
aI1
aI1
aI1
aI2
aI2
aI1
aI1
aI1
aI4
aI3
aI1
aI2
aI1
aI1
aI2
aI1
aI1
aI1
aI1
aI2
aI1
aI1
aI3
aI1
aI1
aI11
aI1
aI1
aI1
aI4
aI1
aI1
aI1
aI2
aI4
aI1
aI2
aI2
aI1
aI2
aI1
aI1
aI1
aI1
aI1
aI8
aI1
aI1
aI1
aI1
aI1
aI1
aI1
aI1
aI2
aI1
aI1
aI1
aI1
aI5
aI1
aI2
aI2
aI2
aI1
aI1
aI2
aI2
aI1
aI1
aI1
aI1
aI2
aI1
aI3
aI1
aI1
aI1
aI1
aI1
aI3
aI2
aI1
aI3
aI1
aI1
aI1
aI1
aI1
aI2
aI1
aI2
aI1
aI1
aI1
aI1
aI3
aI2
aI1
aI3
aI1
aI2
aI1
aI1
aI1
aI2
aI1
aI1
aI1
aI2
aI1
aI2
aI1
aI1
aI1
aI1
aI1
aI2
aI3
aI1
aI1
aI1
aI1
aI1
aI1
aI1
aI3
aI1
aI1
aI1
aI1
aI4
aI1
aI1
aI1
aI2
aI1
aI1
aI1
aI1
aI1
aI1
aI1
aI1
aI1
aI1
aI1
aI1
aI2
aI1
aI1
aI1
aI1
aI3
aI1
aI1
aI1
aI1
aI8
aI1
aI1
aI1
aI3
aI1
aI3
aI1
aI1
aI1
aI1
aI1
aI1
aI1
aI1
aI3
aI1
aI1
aI1
aI1
aI1
aI1
aI3
aI2
aI1
aI3
aI1
aI4
aI1
aI1
aI3
aI1
aI1
aI1
aI1
aI1
aI4
aI1
aI1
aI1
aI12
aI1
aI1
aI1
aI1
aI1
aI2
aI1
aI1
aI4
aI1
aI1
aI1
aI1
aI3
aI2
aI1
aI1
aI2
aI2
aI1
aI2
aI1
aI1
aI2
aI2
aI1
aI1
aI3
aI6
aI3
aI3
aI1
aI1
aI6
aI1
aI1
aI1
aI1
aI1
aI1
aI1
aI3
aI1
aI2
aI1
aI2
aI1
aI1
aI1
aI2
aI1
aI1
aI2
aI1
aI9
aI1
aI1
aI1
aI1
aI1
aI2
aI7
aI1
aI1
aI1
aI4
aI2
aI1
aI2
aI6
aI2
aI1
aI1
aI2
aI2
aI1
aI1
aI1
aI1
aI2
aI1
aI1
aI3
aI2
aI1
aI2
aI4
aI1
aI2
aI3
aI2
aI2
aI1
aI1
aI2
aI4
aI2
aI1
aI1
aI1
aI1
aI1
aI1
aI1
aI1
aI2
aI1
aI1
aI1
aI1
aI1
aI1
aI1
aI1
aI2
aI2
aI1
aI5
aI1
aI1
aI1
aI5
aI1
aI3
aI2
aI1
aI2
aI1
aI1
aI1
aI1
aI6
aI3
aI2
aI1
aI1
aI1
aI1
aI1
aI3
aI1
aI1
aI2
aI1
aI1
aI2
aI2
aI2
aI1
aI2
aI1
aI1
aI1
aI2
aI1
aI5
aI2
aI3
aI1
aI1
aI1
aI1
aI1
aI2
aI1
aI2
aI2
aI1
aI1
aI1
aI3
aI1
aI1
aI1
aI1
aI1
aI6
aI2
aI1
aI7
aI2
aI1
aI5
aI1
aI3
aI1
aI1
aI2
aI1
aI1
aI1
aI1
aI1
aI3
aI1
aI2
aI1
aI1
aI1
aI3
aI1
aI1
aI3
aI1
aI1
aI1
aI1
aI1
aI1
aI1
aI4
aI1
aI1
aI1
aI1
aI1
aI1
aI1
aI2
aI1
aI1
aI1
aI1
aI1
aI1
aI2
aI1
aI1
aI1
aI2
aI4
aI3
aI1
aI1
aI2
aI1
aI1
aI1
aI2
aI1
aI2
aI1
aI2
aI1
aI2
aI2
aI1
aI1
aI1
aI1
aI1
aI1
aI17
aI1
aI1
aI1
aI1
aI1
aI2
aI1
aI1
aI1
aI1
aI2
aI1
aI1
aI8
aI2
aI1
aI2
aI1
aI1
aI1
aI4
aI1
aI1
aI6
aI1
aI1
aI1
aI4
aI1
aI1
aI16
aI1
aI1
aI3
aI3
aI1
aI2
aI1
aI2
aI1
aI1
aI1
aI2
aI1
aI1
aI1
aI4
aI1
aI1
aI1
aI1
aI1
aI1
aI1
aI1
aI1
aI1
aI1
aI1
aI1
aI3
aI1
aI1
aI5
aI1
aI1
aI2
aI1
aI1
aI4
aI3
aI1
aI1
aI2
aI1
aI2
aI1
aI2
aI1
aI1
aI1
aI1
aI1
aI1
aI1
aI1
aI1
aI1
aI1
aI1
aI1
aI1
aI1
aI7
aI1
aI2
aI1
aI2
aI1
aI1
aI1
aI1
aI5
aI1
aI1
aI1
aI1
aI1
aI1
aI1
aI2
aI2
aI1
aI1
aI1
aI2
aI6
aI1
aI1
aI1
aI4
aI1
aI2
aI1
aI1
aI2
aI1
aI1
aI1
aI3
aI1
aI4
aI1
aI1
aI2
aI1
aI1
aI1
aI2
aI1
aI1
aI1
aI2
aI3
aI2
aI1
aI1
aI6
aI5
aI1
aI1
aI3
aI1
aI4
aI2
aI1
aI3
aI3
aI1
aI1
aI1
aI1
aI1
aI2
aI1
aI1
aI1
aI1
aI1
aI1
aI1
aI2
aI1
aI1
aI1
aI4
aI1
aI1
aI1
aI1
aI2
aI1
aI3
aI1
aI1
aI1
aI1
aI2
aI4
aI1
aI1
aI18
aI1
aI1
aI2
aI2
aI6
aI1
aI1
aI1
aI1
aI2
aI2
aI2
aI1
aI1
aI1
aI1
aI1
aI2
aI1
aI6
aI1
aI1
aI2
aI2
aI1
aI2
aI2
aI5
aI10
aI3
aI2
aI1
aI2
aI3
aI1
aI1
aI2
aI2
aI1
aI1
aI1
aI1
aI3
aI1
aI1
aI1
aI1
aI1
aI1
aI1
aI1
aI1
aI1
aI1
aI1
aI1
aI2
aI1
aI2
aI1
aI1
aI1
aI2
aI1
aI2
aI1
aI1
aI1
aI1
aI1
aI1
aI2
aI1
aI2
aI1
aI1
aI1
aI3
aI7
aI1
aI1
aI1
aI1
aI1
aI1
aI2
aI1
aI1
aI1
aI2
aI1
aI1
aI1
aI1
aI1
aI3
aI1
aI1
aI1
aI1
aI1
aI1
aI1
aI1
aI1
aI1
aI1
aI1
aI2
aI1
aI1
aI3
aI2
aI1
aI1
aI1
aI2
aI1
aI1
aI1
aI1
aI1
aI1
aI1
aI8
aI1
aI1
aI2
aI1
aI1
aI1
aI1
aI1
aI1
aI3
aI1
aI1
aI1
aI8
aI7
aI1
aI5
aI1
aI3
aI2
aI1
aI1
aI2
aI1
aI2
aI1
aI4
aI1
aI1
aI2
aI1
aI1
aI5
aI1
aI1
aI1
aI1
aI5
aI1
aI1
aI4
aI1
aI5
aI1
aI1
aI14
aI2
aI2
aI1
aI1
aI1
aI1
aI1
aI2
aI1
aI1
aI2
aI1
aI3
aI2
aI1
aI1
aI1
aI1
aI1
aI1
aI1
aI2
aI1
aI2
aI2
aI1
aI1
aI2
aI2
aI1
aI1
aI4
aI2
aI2
aI3
aI2
aI1
aI5
aI8
aI1
aI1
aI7
aI1
aI3
aI2
aI2
aI1
aI5
aI1
aI1
aI1
aI1
aI1
aI1
aI1
aI1
aI1
aI4
aI1
aI1
aI1
aI4
aI3
aI2
aI3
aI3
aI1
aI4
aI3
aI1
aI1
aI1
aI1
aI2
aI2
aI1
aI1
aI1
aI1
aI4
aI1
aI4
aI1
aI4
aI1
aI1
aI1
aI1
aI1
aI1
aI1
aI1
aI2
aI5
aI1
aI1
aI2
aI1
aI1
aI1
aI4
aI1
aI1
aI1
aI1
aI2
aI1
aI6
aI1
aI4
aI1
aI2
aI1
aI1
aI1
aI1
aI1
aI1
aI5
aI1
aI1
aI1
aI1
aI6
aI1
aI1
aI3
aI1
aI3
aI2
aI1
aI5
aI1
aI1
aI1
aI1
aI7
aI1
aI1
aI13
aI2
aI5
aI1
aI1
aI11
aI2
aI1
aI1
aI1
aI1
aI1
aI1
aI1
aI4
aI3
aI1
aI1
aI2
aI1
aI6
aI1
aI2
aI1
aI1
aI1
aI1
aI1
aI1
aI1
aI3
aI2
aI8
aI1
aI1
aI1
aI1
aI1
aI1
aI3
aI4
aI9
aI3
aI1
aI1
aI6
aI1
aI1
aI1
aI2
aI1
aI1
aI1
aI1
aI1
aI2
aI2
aI1
aI1
aI2
aI1
aI1
aI1
aI1
aI1
aI1
aI2
aI2
aI1
aI1
aI1
aI1
aI1
aI1
aI2
aI2
aI1
aI1
aI1
aI3
aI2
aI1
aI1
aI1
aI1
aI3
aI3
aI1
aI2
aI1
aI1
aI1
aI1
aI1
aI1
aI1
aI1
aI1
aI2
aI1
aI2
aI1
aI2
aI1
aI2
aI3
aI1
aI1
aI1
aI1
aI1
aI7
aI1
aI1
aI1
aI4
aI16
aI4
aI6
aI1
aI1
aI1
aI1
aI1
aI1
aI3
aI1
aI1
aI5
aI2
aI4
aI1
aI3
aI2
aI1
aI1
aI5
aI4
aI1
aI2
aI2
aI1
aI5
aI1
aI1
aI1
aI2
aI2
aI2
aI1
aI1
aI1
aI1
aI1
aI1
aI1
aI1
aI1
aI1
aI1
aI3
aI6
aI1
aI6
aI3
aI1
aI1
aI3
aI1
aI2
aI1
aI1
aI2
aI2
aI1
aI1
aI1
aI1
aI1
aI1
aI1
aI2
aI1
aI1
aI1
aI1
aI1
aI1
aI1
aI1
aI3
aI3
aI1
aI3
aI1
aI2
aI3
aI1
aI1
aI3
aI1
aI1
aI3
aI1
aI1
aI2
aI4
aI1
aI11
aI1
aI1
aI1
aI1
aI1
aI1
aI1
aI1
aI1
aI1
aI3
aI3
aI1
aI1
aI1
aI4
aI2
aI1
aI1
aI2
aI1
aI4
aI1
aI2
aI2
aI1
aI1
aI1
aI1
aI2
aI1
aI1
aI2
aI1
aI2
aI1
aI2
aI1
aI1
aI8
aI2
aI2
aI2
aI3
aI3
aI2
aI1
aI3
aI1
aI2
aI1
aI1
aI4
aI1
aI1
aI4
aI2
aI4
aI2
aI2
aI1
aI2
aI1
aI1
aI1
aI1
aI1
aI1
aI2
aI2
aI3
aI1
aI1
aI1
aI1
aI3
aI1
aI1
aI2
aI1
aI2
aI1
aI3
aI1
aI2
aI1
aI1
aI1
aI1
aI2
aI2
aI1
aI2
aI1
aI1
aI1
aI2
aI3
aI3
aI2
aI2
aI1
aI1
aI1
aI1
aI2
aI2
aI2
aI1
aI1
aI2
aI1
aI2
aI3
aI1
aI3
aI4
aI2
aI1
aI2
aI2
aI4
aI1
aI1
aI1
aI3
aI2
aI2
aI1
aI1
aI1
aI1
aI4
aI1
aI1
aI2
aI1
aI1
aI1
aI1
aI6
aI1
aI1
aI1
aI1
aI2
aI4
aI1
aI1
aI1
aI5
aI2
aI2
aI3
aI7
aI1
aI1
aI1
aI2
aI2
aI2
aI1
aI1
aI1
aI1
aI2
aI1
aI1
aI1
aI2
aI2
aI1
aI1
aI2
aI1
aI1
aI1
aI3
aI1
aI1
aI1
aI2
aI1
aI1
aI1
aI3
aI1
aI2
aI2
aI1
aI1
aI1
aI1
aI1
aI5
aI1
aI2
aI2
aI5
aI1
aI1
aI1
aI2
aI1
aI1
aI1
aI1
aI1
aI1
aI2
aI1
aI1
aI1
aI3
aI1
aI4
aI1
aI1
aI1
aI1
aI4
aI2
aI1
aI1
aI3
aI2
aI4
aI3
aI2
aI1
aI2
aI1
aI2
aI3
aI1
aI1
aI1
aI1
aI1
aI1
aI1
aI2
aI1
aI1
aI4
aI1
aI1
aI3
aI6
aI1
aI2
aI2
aI4
aI2
aI1
aI3
aI1
aI1
aI1
aI4
aI3
aI1
aI1
aI1
aI4
aI3
aI4
aI1
aI1
aI2
aI1
aI2
aI1
aI1
aI3
aI1
aI1
aI1
aI1
aI1
aI1
aI1
aI1
aI1
aI2
aI2
aI4
aI1
aI2
aI1
aI1
aI1
aI2
aI1
aI1
aI1
aI1
aI1
aI2
aI2
aI1
aI1
aI4
aI1
aI2
aI1
aI2
aI1
aI1
aI2
aI1
aI1
aI1
aI2
aI2
aI1
aI1
aI2
aI2
aI7
aI2
aI1
aI1
aI1
aI1
aI2
aI1
aI2
aI1
aI1
aI1
aI1
aI1
aI1
aI2
aI1
aI1
aI4
aI7
aI3
aI3
aI2
aI2
aI1
aI1
aI1
aI1
aI1
aI1
aI4
aI1
aI1
aI1
aI2
aI3
aI4
aI1
aI2
aI1
aI3
aI1
aI1
aI4
aI1
aI2
aI3
aI1
aI1
aI2
aI3
aI1
aI2
aI21
aI1
aI1
aI1
aI2
aI3
aI2
aI2
aI1
aI1
aI1
aI2
aI1
aI2
aI1
aI2
aI1
aI4
aI1
aI3
aI2
aI1
aI1
aI1
aI1
aI1
aI6
aI2
aI1
aI2
aI5
aI3
aI1
aI2
aI1
aI1
aI1
aI2
aI1
aI1
aI1
aI1
aI1
aI2
aI1
aI2
aI1
aI1
aI1
aI3
aI5
aI1
aI1
aI3
aI1
aI1
aI2
aI1
aI1
aI1
aI1
aI1
aI1
aI1
aI1
aI1
aI1
aI4
aI3
aI1
aI1
aI3
aI1
aI2
aI1
aI2
aI12
aI1
aI1
aI4
aI1
aI2
aI2
aI1
aI1
aI1
aI1
aI5
aI1
aI2
aI1
aI1
aI4
aI2
aI1
aI1
aI1
aI1
aI1
aI1
aI4
aI1
aI2
aI1
aI1
aI4
aI2
aI3
aI2
aI4
aI3
aI3
aI2
aI2
aI1
aI1
aI4
aI1
aI1
aI3
aI2
aI8
aI6
aI1
aI1
aI2
aI1
aI2
aI1
aI1
aI9
aI7
aI2
aI3
aI1
aI2
aI1
aI2
aI16
aI2
aI1
aI2
aI1
aI2
aI2
aI3
aI3
aI1
aI1
aI2
aI1
aI5
aI1
aI1
aI1
aI1
aI1
aI15
aI1
aI1
aI1
aI1
aI3
aI2
aI1
aI3
aI1
aI2
aI1
aI1
aI1
aI1
aI2
aI1
aI1
aI1
aI1
aI1
aI1
aI1
aI1
aI2
aI1
aI1
aI1
aI1
aI4
aI2
aI1
aI1
aI1
aI6
aI1
aI3
aI4
aI1
aI1
aI1
aI1
aI1
aI4
aI2
aI1
aI3
aI2
aI3
aI1
aI1
aI2
aI1
aI2
aI1
aI6
aI1
aI1
aI1
aI2
aI1
aI1
aI2
aI4
aI2
aI2
aI1
aI1
aI1
aI3
aI2
aI4
aI5
aI1
aI1
aI1
aI7
aI1
aI2
aI2
aI4
aI4
aI2
aI1
aI1
aI2
aI3
aI5
aI1
aI3
aI1
aI2
aI1
aI1
aI1
aI1
aI6
aI1
aI1
aI5
aI2
aI1
aI5
aI1
aI1
aI1
aI5
aI5
aI1
aI1
aI1
aI1
aI1
aI1
aI1
aI1
aI1
aI1
aI1
aI2
aI6
aI1
aI4
aI1
aI2
aI2
aI1
aI4
aI1
aI1
aI2
aI1
aI1
aI1
aI2
aI7
aI2
aI4
aI2
aI13
aI1
aI2
aI1
aI1
aI2
aI1
aI2
aI1
aI1
aI1
aI2
aI2
aI1
aI1
aI1
aI2
aI3
aI1
aI4
aI1
aI1
aI2
aI4
aI1
aI6
aI1
aI11
aI2
aI1
aI2
aI3
aI1
aI1
aI1
aI1
aI2
aI1
aI1
aI1
aI1
aI4
aI2
aI1
aI2
aI2
aI4
aI1
aI1
aI1
aI2
aI3
aI1
aI1
aI10
aI1
aI1
aI3
aI2
aI1
aI2
aI18
aI1
aI1
aI2
aI1
aI1
aI2
aI2
aI2
aI6
aI1
aI1
aI1
aI7
aI1
aI2
aI3
aI1
aI1
aI1
aI2
aI1
aI1
aI1
aI3
aI4
aI2
aI7
aI1
aI1
aI1
aI3
aI1
aI2
aI8
aI1
aI1
aI2
aI1
aI1
aI2
aI3
aI1
aI1
aI1
aI1
aI1
aI12
aI2
aI1
aI1
aI1
aI2
aI2
aI1
aI1
aI3
aI2
aI4
aI1
aI1
aI1
aI2
aI2
aI1
aI1
aI1
aI1
aI1
aI1
aI1
aI1
aI1
aI1
aI1
aI1
aI2
aI2
aI1
aI1
aI1
aI1
aI2
aI1
aI2
aI1
aI1
aI1
aI1
aI1
aI1
aI2
aI1
aI1
aI1
aI1
aI3
aI8
aI1
aI1
aI2
aI2
aI3
aI3
aI1
aI1
aI2
aI1
aI1
aI1
aI2
aI3
aI1
aI1
aI1
aI1
aI1
aI1
aI2
aI1
aI2
aI1
aI7
aI1
aI2
aI2
aI1
aI1
aI1
aI1
aI1
aI1
aI1
aI4
aI1
aI1
aI1
aI1
aI1
aI1
aI1
aI2
aI4
aI2
aI4
aI1
aI1
aI1
aI1
aI1
aI1
aI1
aI2
aI1
aI1
aI2
aI2
aI2
aI1
aI1
aI1
aI1
aI1
aI1
aI1
aI1
aI1
aI1
aI2
aI1
aI3
aI1
aI1
aI2
aI1
aI1
aI1
aI1
aI1
aI1
aI4
aI1
aI1
aI1
aI1
aI1
aI1
aI1
aI1
aI1
aI1
aI1
aI2
aI2
aI2
aI1
aI3
aI1
aI1
aI1
aI1
aI2
aI3
aI1
aI1
aI1
aI3
aI2
aI3
aI3
aI5
aI1
aI1
aI1
aI2
aI1
aI1
aI2
aI2
aI1
aI1
aI1
aI1
aI1
aI1
aI1
aI1
aI1
aI1
aI2
aI1
aI1
aI2
aI1
aI1
aI1
aI1
aI2
aI1
aI1
aI1
aI3
aI4
aI1
aI1
aI1
aI1
aI1
aI1
aI1
aI1
aI7
aI2
aI1
aI1
aI2
aI6
aI2
aI1
aI4
aI2
aI4
aI1
aI1
aI1
aI3
aI2
aI1
aI3
aI1
aI1
aI1
aI1
aI2
aI1
aI1
aI1
aI1
aI1
aI1
aI4
aI1
aI1
aI1
aI1
aI1
aI1
aI2
aI5
aI6
aI1
aI1
aI1
aI1
aI2
aI1
aI2
aI3
aI6
aI1
aI2
aI1
aI1
aI1
aI1
aI2
aI3
aI1
aI1
aI2
aI1
aI6
aI2
aI1
aI1
aI1
aI2
aI1
aI5
aI1
aI1
aI1
aI1
aI1
aI1
aI1
aI1
aI2
aI1
aI1
aI2
aI1
aI1
aI2
aI1
aI1
aI2
aI1
aI1
aI1
aI1
aI2
aI1
aI1
aI1
aI1
aI1
aI3
aI2
aI3
aI1
aI2
aI1
aI3
aI1
aI1
aI1
aI1
aI1
aI1
aI1
aI1
aI3
aI1
aI1
aI1
aI1
aI1
aI1
aI2
aI1
aI3
aI1
aI2
aI1
aI2
aI2
aI2
aI1
aI1
aI3
aI1
aI1
aI1
aI1
aI4
aI1
aI1
aI3
aI1
aI1
aI1
aI2
aI1
aI1
aI1
aI2
aI1
aI2
aI1
aI1
aI3
aI3
aI2
aI1
aI1
aI1
aI1
aI1
aI1
aI1
aI1
aI2
aI1
aI4
aI1
aI2
aI1
aI1
aI4
aI1
aI3
aI1
aI1
aI1
aI2
aI1
aI1
aI3
aI5
aI1
aI1
aI2
aI2
aI1
aI3
aI1
aI1
aI1
aI1
aI1
aI1
aI1
aI3
aI1
aI1
aI2
aI1
aI2
aI1
aI1
aI1
aI1
aI1
aI1
aI1
aI1
aI3
aI1
aI2
aI1
aI2
aI1
aI1
aI1
aI1
aI3
aI1
aI1
aI1
aI1
aI6
aI1
aI1
aI1
aI2
aI1
aI1
aI1
aI1
aI2
aI2
aI1
aI1
aI1
aI1
aI1
aI1
aI1
aI1
aI1
aI2
aI1
aI2
aI1
aI1
aI1
aI1
aI1
aI1
aI1
aI1
aI1
aI1
aI3
aI2
aI2
aI2
aI4
aI8
aI3
aI1
aI2
aI1
aI1
aI1
aI1
aI1
aI1
aI4
aI1
aI1
aI3
aI1
aI2
aI1
aI4
aI1
aI3
aI1
aI1
aI1
aI1
aI1
aI1
aI1
aI1
aI1
aI1
aI1
aI3
aI1
aI1
aI2
aI1
aI1
aI1
aI1
aI1
aI1
aI3
aI1
aI1
aI1
aI2
aI1
aI1
aI1
aI5
aI1
aI3
aI4
aI1
aI1
aI4
aI5
aI1
aI1
aI1
aI2
aI1
aI2
aI1
aI4
aI2
aI1
aI1
aI1
aI1
aI3
aI1
aI1
aI1
aI1
aI2
aI1
aI2
aI1
aI1
aI1
aI2
aI1
aI2
aI2
aI1
aI1
aI3
aI1
aI3
aI1
aI1
aI1
aI7
aI2
aI2
aI1
aI2
aI1
aI4
aI7
aI1
aI1
aI1
aI1
aI1
aI1
aI4
aI2
aI1
aI1
aI3
aI1
aI1
aI2
aI1
aI1
aI1
aI2
aI1
aI1
aI1
aI2
aI3
aI2
aI1
aI2
aI1
aI1
aI1
aI1
aI1
aI3
aI1
aI3
aI1
aI2
aI5
aI3
aI2
aI1
aI1
aI3
aI1
aI1
aI1
aI2
aI11
aI1
aI1
aI1
aI1
aI2
aI1
aI1
aI2
aI1
aI1
aI2
aI6
aI2
aI1
aI1
aI1
aI2
aI3
aI1
aI1
aI1
aI1
aI1
aI1
aI9
aI2
aI2
aI2
aI1
aI4
aI2
aI1
aI1
aI1
aI1
aI1
aI1
aI1
aI1
aI1
aI1
aI1
aI2
aI1
aI1
aI1
aI1
aI1
aI1
aI5
aI1
aI1
aI6
aI2
aI1
aI2
aI1
aI1
aI1
aI4
aI2
aI2
aI1
aI1
aI1
aI1
aI3
aI1
aI1
aI1
aI1
aI1
aI1
aI2
aI1
aI1
aI4
aI2
aI1
aI1
aI1
aI1
aI2
aI3
aI2
aI1
aI1
aI1
aI3
aI1
aI1
aI2
aI1
aI2
aI1
aI1
aI1
aI1
aI1
aI1
aI1
aI2
aI2
aI1
aI1
aI1
aI1
aI1
aI1
aI3
aI2
aI1
aI1
aI3
aI1
aI1
aI2
aI1
aI1
aI2
aI1
aI2
aI1
aI1
aI1
aI3
aI5
aI1
aI2
aI1
aI3
aI1
aI3
aI3
aI2
aI1
aI1
aI3
aI1
aI6
aI1
aI2
aI1
aI1
aI2
aI1
aI1
aI1
aI1
aI1
aI1
aI21
aI1
aI3
aI1
aI1
aI1
aI1
aI1
aI1
aI2
aI1
aI1
aI3
aI2
aI1
aI1
aI1
aI1
aI1
aI1
aI2
aI2
aI1
aI2
aI1
aI1
aI1
aI1
aI1
aI4
aI1
aI1
aI1
aI1
aI1
aI1
aI1
aI6
aI3
aI4
aI3
aI1
aI1
aI2
aI1
aI4
aI1
aI1
aI2
aI2
aI1
aI1
aI3
aI6
aI2
aI2
aI1
aI4
aI2
aI1
aI5
aI1
aI1
aI2
aI1
aI3
aI2
aI6
aI7
aI3
aI1
aI1
aI1
aI2
aI1
aI2
aI1
aI1
aI1
aI3
aI1
aI1
aI2
aI4
aI8
aI1
aI2
aI1
aI1
aI4
aI2
aI4
aI1
aI1
aI1
aI1
aI3
aI2
aI1
aI2
aI59
aI2
aI1
aI1
aI1
aI1
aI1
aI1
aI1
aI1
aI1
aI3
aI1
aI3
aI1
aI2
aI1
aI1
aI1
aI1
aI2
aI1
aI5
aI1
aI1
aI4
aI9
aI2
aI1
aI1
aI3
aI3
aI1
aI1
aI1
aI1
aI1
aI1
aI1
aI1
aI3
aI1
aI1
aI1
aI2
aI1
aI1
aI2
aI1
aI1
aI1
aI2
aI1
aI1
aI1
aI11
aI2
aI1
aI1
aI1
aI6
aI1
aI2
aI1
aI6
aI1
aI1
aI3
aI1
aI1
aI1
aI1
aI6
aI2
aI5
aI1
aI4
aI1
aI3
aI1
aI2
aI2
aI2
aI1
aI1
aI8
aI1
aI1
aI1
aI2
aI1
aI2
aI1
aI3
aI1
aI1
aI2
aI1
aI1
aI1
aI2
aI2
aI1
aI1
aI1
aI1
aI1
aI1
aI1
aI1
aI2
aI2
aI2
aI2
aI1
aI1
aI1
aI3
aI1
aI2
aI1
aI1
aI1
aI1
aI1
aI1
aI1
aI1
aI1
aI1
aI4
aI2
aI1
aI3
aI2
aI1
aI1
aI1
aI1
aI3
aI1
aI1
aI1
aI1
aI1
aI5
aI1
aI1
aI2
aI1
aI1
aI3
aI1
aI2
aI1
aI1
aI1
aI1
aI1
aI1
aI2
aI1
aI2
aI3
aI1
aI1
aI5
aI2
aI1
aI1
aI1
aI3
aI1
aI1
aI2
aI2
aI1
aI2
aI1
aI1
aI1
aI5
aI2
aI4
aI1
aI5
aI1
aI1
aI1
aI1
aI2
aI1
aI2
aI4
aI2
aI3
aI3
aI35
aI4
aI3
aI6
aI1
aI1
aI1
aI1
aI1
aI1
aI1
aI1
aI3
aI1
aI1
aI6
aI3
aI3
aI1
aI2
aI2
aI1
aI1
aI5
aI3
aI1
aI3
aI1
aI1
aI1
aI1
aI6
aI1
aI1
aI1
aI4
aI1
aI2
aI1
aI2
aI12
aI1
aI9
aI1
aI2
aI1
aI5
aI2
aI2
aI1
aI2
aI1
aI1
aI1
aI3
aI1
aI3
aI2
aI5
aI4
aI1
aI1
aI1
aI2
aI1
aI1
aI1
aI1
aI1
aI2
aI2
aI1
aI4
aI7
aI1
aI3
aI1
aI3
aI1
aI3
aI1
aI1
aI1
aI1
aI1
aI6
aI1
aI1
aI4
aI1
aI2
aI1
aI1
aI1
aI1
aI4
aI1
aI1
aI4
aI3
aI1
aI1
aI2
aI3
aI3
aI2
aI1
aI1
aI1
aI1
aI1
aI2
aI2
aI1
aI1
aI1
aI3
aI1
aI1
aI1
aI1
aI14
aI29
aI1
aI3
aI1
aI1
aI8
aI2
aI4
aI1
aI1
aI1
aI1
aI5
aI7
aI1
aI1
aI1
aI1
aI3
aI1
aI2
aI2
aI3
aI3
aI1
aI1
aI1
aI1
aI1
aI1
aI6
aI1
aI1
aI2
aI2
aI1
aI3
aI2
aI4
aI2
aI1
aI2
aI2
aI3
aI1
aI1
aI2
aI1
aI1
aI4
aI6
aI1
aI1
aI2
aI1
aI8
aI3
aI2
aI1
aI2
aI7
aI1
aI2
aI1
aI2
aI1
aI1
aI1
aI1
aI1
aI1
aI1
aI2
aI1
aI1
aI1
aI2
aI1
aI1
aI1
aI2
aI2
aI1
aI1
aI1
aI3
aI1
aI1
aI1
aI1
aI2
aI4
aI1
aI1
aI2
aI1
aI1
aI2
aI1
aI1
aI9
aI1
aI1
aI1
aI3
aI1
aI1
aI1
aI1
aI4
aI3
aI2
aI1
aI1
aI1
aI1
aI1
aI1
aI1
aI1
aI1
aI1
aI2
aI5
aI4
aI7
aI1
aI1
aI1
aI2
aI1
aI1
aI1
aI1
aI3
aI2
aI1
aI1
aI1
aI2
aI1
aI1
aI4
aI4
aI3
aI1
aI1
aI7
aI1
aI2
aI1
aI1
aI2
aI1
aI5
aI1
aI1
aI1
aI1
aI1
aI2
aI3
aI1
aI2
aI1
aI1
aI1
aI1
aI3
aI2
aI1
aI3
aI1
aI9
aI5
aI1
aI1
aI1
aI1
aI1
aI1
aI1
aI1
aI2
aI1
aI4
aI1
aI1
aI1
aI1
aI2
aI4
aI1
aI2
aI3
aI1
aI1
aI1
aI5
aI1
aI1
aI3
aI1
aI1
aI3
aI2
aI3
aI1
aI1
aI1
aI1
aI1
aI3
aI3
aI7
aI5
aI1
aI11
aI1
aI3
aI1
aI5
aI1
aI3
aI1
aI2
aI1
aI1
aI1
aI1
aI2
aI1
aI1
aI1
aI3
aI1
aI1
aI3
aI1
aI3
aI2
aI3
aI1
aI4
aI1
aI1
aI1
aI1
aI1
aI1
aI2
aI1
aI1
aI1
aI2
aI1
aI1
aI1
aI1
aI1
aI6
aI1
aI3
aI1
aI1
aI4
aI1
aI1
aI1
aI1
aI1
aI1
aI1
aI2
aI1
aI3
aI2
aI2
aI2
aI1
aI1
aI2
aI1
aI1
aI1
aI1
aI2
aI2
aI1
aI1
aI2
aI1
aI6
aI3
aI1
aI5
aI2
aI1
aI2
aI1
aI3
aI2
aI1
aI2
aI2
aI4
aI1
aI1
aI1
aI1
aI1
aI1
aI2
aI3
aI1
aI1
aI6
aI2
aI3
aI1
aI3
aI4
aI2
aI1
aI1
aI1
aI1
aI1
aI1
aI1
aI1
aI2
aI1
aI1
aI1
aI1
aI4
aI2
aI1
aI1
aI1
aI1
aI3
aI1
aI6
aI1
aI2
aI8
aI3
aI6
aI1
aI1
aI1
aI1
aI1
aI1
aI1
aI1
aI11
aI3
aI2
aI1
aI1
aI1
aI7
aI11
aI1
aI3
aI1
aI1
aI1
aI4
aI17
aI1
aI2
aI8
aI1
aI1
aI1
aI4
aI2
aI1
aI1
aI1
aI1
aI2
aI2
aI1
aI1
aI1
aI1
aI1
aI8
aI1
aI1
aI1
aI1
aI2
aI1
aI8
aI1
aI2
aI1
aI2
aI2
aI1
aI1
aI1
aI1
aI1
aI2
aI3
aI4
aI1
aI1
aI1
aI1
aI2
aI2
aI2
aI4
aI2
aI1
aI1
aI1
aI1
aI1
aI3
aI4
aI6
aI2
aI1
aI1
aI1
aI1
aI2
aI4
aI1
aI2
aI6
aI1
aI6
aI2
aI1
aI4
aI1
aI1
aI2
aI1
aI2
aI3
aI1
aI1
aI7
aI1
aI1
aI3
aI1
aI1
aI1
aI1
aI1
aI2
aI2
aI2
aI1
aI1
aI1
aI1
aI3
aI8
aI1
aI1
aI1
aI2
aI1
aI7
aI5
aI1
aI2
aI9
aI1
aI1
aI1
aI1
aI1
aI1
aI2
aI1
aI1
aI2
aI1
aI1
aI2
aI2
aI1
aI1
aI1
aI1
aI4
aI1
aI1
aI2
aI1
aI1
aI1
aI2
aI1
aI1
aI1
aI7
aI2
aI1
aI2
aI4
aI3
aI14
aI1
aI2
aI1
aI1
aI1
aI2
aI1
aI1
aI4
aI1
aI3
aI1
aI3
aI1
aI2
aI1
aI1
aI1
aI2
aI2
aI4
aI1
aI1
aI2
aI1
aI1
aI10
aI3
aI2
aI1
aI1
aI1
aI3
aI10
aI2
aI1
aI3
aI1
aI1
aI5
aI3
aI2
aI1
aI2
aI1
aI5
aI1
aI1
aI1
aI1
aI5
aI1
aI2
aI2
aI2
aI1
aI8
aI1
aI1
aI1
aI1
aI1
aI10
aI1
aI1
aI4
aI3
aI1
aI2
aI1
aI1
aI1
aI1
aI2
aI1
aI8
aI2
aI3
aI1
aI1
aI1
aI2
aI2
aI1
aI1
aI5
aI2
aI4
aI2
aI3
aI2
aI5
aI4
aI2
aI1
aI1
aI1
aI3
aI3
aI1
aI1
aI1
aI1
aI1
aI1
aI1
aI1
aI1
aI1
aI1
aI3
aI1
aI1
aI2
aI1
aI2
aI1
aI2
aI1
aI2
aI1
aI1
aI1
aI1
aI1
aI6
aI1
aI1
aI1
aI1
aI1
aI1
aI2
aI1
aI2
aI1
aI2
aI2
aI1
aI3
aI3
aI1
aI2
aI1
aI1
aI1
aI1
aI3
aI1
aI1
aI3
aI1
aI1
aI2
aI1
aI1
aI2
aI3
aI3
aI1
aI1
aI2
aI6
aI1
aI2
aI1
aI1
aI1
aI1
aI1
aI1
aI1
aI3
aI1
aI2
aI1
aI1
aI3
aI2
aI1
aI1
aI1
aI5
aI1
aI1
aI1
aI1
aI1
aI2
aI2
aI5
aI1
aI3
aI8
aI1
aI1
aI1
aI1
aI1
aI1
aI1
aI1
aI5
aI1
aI1
aI1
aI1
aI4
aI1
aI2
aI1
aI1
aI1
aI6
aI7
aI5
aI1
aI1
aI3
aI2
aI3
aI2
aI1
aI1
aI1
aI1
aI1
aI1
aI3
aI4
aI2
aI1
aI1
aI2
aI1
aI1
aI5
aI6
aI3
aI1
aI1
aI1
aI3
aI1
aI1
aI4
aI2
aI2
aI1
aI3
aI2
aI1
aI1
aI1
aI1
aI1
aI1
aI3
aI6
aI1
aI1
aI6
aI1
aI4
aI2
aI1
aI2
aI12
aI2
aI9
aI1
aI1
aI1
aI2
aI5
aI1
aI1
aI1
aI1
aI1
aI3
aI4
aI2
aI1
aI1
aI1
aI1
aI2
aI4
aI3
aI1
aI1
aI1
aI1
aI27
aI1
aI4
aI1
aI1
aI3
aI1
aI1
aI3
aI2
aI3
aI1
aI1
aI1
aI1
aI1
aI1
aI1
aI2
aI1
aI1
aI1
aI1
aI2
aI1
aI1
aI2
aI1
aI1
aI3
aI1
aI2
aI1
aI1
aI5
aI5
aI1
aI1
aI1
aI1
aI3
aI1
aI6
aI2
aI1
aI1
aI1
aI2
aI3
aI1
aI1
aI1
aI6
aI1
aI1
aI1
aI1
aI5
aI1
aI1
aI2
aI6
aI14
aI2
aI6
aI3
aI2
aI1
aI2
aI5
aI1
aI4
aI1
aI3
aI2
aI3
aI1
aI1
aI1
aI1
aI1
aI2
aI3
aI3
aI3
aI1
aI1
aI1
aI2
aI1
aI1
aI1
aI1
aI2
aI1
aI3
aI3
aI6
aI2
aI1
aI2
aI1
aI1
aI1
aI3
aI1
aI1
aI1
aI2
aI1
aI1
aI1
aI1
aI1
aI1
aI1
aI1
aI5
aI1
aI1
aI4
aI1
aI1
aI1
aI1
aI1
aI4
aI3
aI1
aI1
aI1
aI1
aI11
aI1
aI1
aI1
aI4
aI1
aI8
aI2
aI1
aI2
aI2
aI1
aI2
aI1
aI1
aI1
aI1
aI3
aI3
aI2
aI13
aI1
aI6
aI1
aI1
aI11
aI3
aI1
aI1
aI3
aI16
aI2
aI2
aI2
aI1
aI1
aI9
aI1
aI1
aI1
aI1
aI1
aI1
aI1
aI8
aI1
aI17
aI4
aI7
aI2
aI1
aI7
aI2
aI3
aI1
aI1
aI2
aI1
aI1
aI1
aI1
aI1
aI11
aI1
aI1
aI1
aI1
aI4
aI1
aI1
aI1
aI1
aI3
aI1
aI3
aI2
aI1
aI1
aI1
aI4
aI2
aI3
aI3
aI7
aI7
aI1
aI1
aI11
aI2
aI1
aI1
aI3
aI2
aI1
aI1
aI1
aI1
aI1
aI3
aI2
aI1
aI1
aI1
aI1
aI7
aI5
aI1
aI1
aI1
aI2
aI1
aI5
aI12
aI1
aI2
aI3
aI4
aI2
aI1
aI2
aI1
aI2
aI3
aI1
aI3
aI33
aI1
aI1
aI3
aI1
aI1
aI1
aI1
aI4
aI1
aI1
aI2
aI2
aI1
aI7
aI10
aI1
aI1
aI1
aI4
aI1
aI2
aI2
aI1
aI6
aI1
aI6
aI1
aI1
aI1
aI4
aI1
aI1
aI1
aI1
aI1
aI1
aI7
aI1
aI1
aI1
aI1
aI2
aI4
aI1
aI3
aI1
aI1
aI1
aI2
aI1
aI1
aI6
aI2
aI1
aI1
aI7
aI7
aI16
aI2
aI3
aI2
aI2
aI2
aI4
aI2
aI2
aI3
aI1
aI1
aI1
aI1
aI1
aI1
aI1
aI1
aI2
aI2
aI1
aI2
aI6
aI1
aI1
aI2
aI1
aI1
aI1
aI1
aI1
aI1
aI3
aI2
aI1
aI2
aI1
aI1
aI1
aI1
aI1
aI2
aI2
aI2
aI1
aI3
aI4
aI2
aI3
aI1
aI1
aI1
aI1
aI1
aI1
aI1
aI1
aI1
aI1
aI1
aI6
aI1
aI4
aI2
aI2
aI4
aI5
aI1
aI2
aI1
aI1
aI1
aI6
aI6
aI1
aI1
aI2
aI5
aI1
aI1
aI1
aI1
aI1
aI1
aI2
aI2
aI10
aI3
aI2
aI3
aI1
aI1
aI2
aI1
aI1
aI2
aI3
aI2
aI1
aI1
aI2
aI8
aI5
aI1
aI1
aI2
aI1
aI1
aI1
aI1
aI1
aI1
aI1
aI9
aI1
aI2
aI1
aI2
aI4
aI1
aI1
aI3
aI5
aI4
aI2
aI3
aI1
aI2
aI8
aI2
aI3
aI3
aI3
aI3
aI1
aI2
aI6
aI3
aI4
aI8
aI5
aI1
aI7
aI1
aI1
aI1
aI7
aI1
aI1
aI3
aI4
aI1
aI3
aI4
aI1
aI3
aI1
aI2
aI1
aI4
aI2
aI6
aI1
aI4
aI5
aI3
aI1
aI1
aI2
aI1
aI3
aI2
aI1
aI1
aI1
aI1
aI2
aI3
aI5
aI3
aI14
aI1
aI1
aI2
aI4
aI1
aI1
aI2
aI1
aI1
aI1
aI2
aI1
aI3
aI7
aI1
aI3
aI3
aI2
aI2
aI1
aI1
aI4
aI2
aI1
aI2
aI1
aI4
aI1
aI1
aI2
aI4
aI3
aI1
aI4
aI5
aI3
aI1
aI2
aI2
aI3
aI1
aI2
aI1
aI1
aI1
aI1
aI1
aI1
aI1
aI1
aI2
aI1
aI1
aI1
aI3
aI1
aI1
aI1
aI3
aI4
aI1
aI1
aI2
aI2
aI3
aI1
aI4
aI4
aI9
aI1
aI2
aI2
aI1
aI2
aI1
aI1
aI1
aI2
aI1
aI1
aI2
aI1
aI2
aI3
aI8
aI5
aI1
aI1
aI4
aI1
aI1
aI1
aI3
aI5
aI2
aI4
aI2
aI3
aI3
aI5
aI8
aI5
aI3
aI1
aI12
aI4
aI6
aI7
aI5
aI1
aI1
aI1
aI2
aI2
aI2
aI1
aI5
aI1
aI1
aI1
aI2
aI5
aI1
aI1
aI1
aI1
aI1
aI2
aI2
aI1
aI1
aI1
aI1
aI1
aI1
aI5
aI1
aI2
aI4
aI1
aI2
aI1
aI5
aI1
aI1
aI1
aI2
aI1
aI1
aI1
aI1
aI2
aI2
aI2
aI1
aI3
aI3
aI4
aI1
aI1
aI1
aI2
aI2
aI1
aI1
aI4
aI2
aI3
aI2
aI2
aI3
aI2
aI2
aI1
aI1
aI2
aI4
aI1
aI1
aI1
aI1
aI3
aI3
aI1
aI1
aI25
aI2
aI3
aI3
aI1
aI1
aI16
aI1
aI1
aI1
aI1
aI3
aI2
aI2
aI1
aI1
aI1
aI1
aI1
aI1
aI1
aI1
aI3
aI2
aI1
aI1
aI2
aI1
aI1
aI2
aI3
aI9
aI5
aI4
aI1
aI1
aI2
aI1
aI2
aI1
aI2
aI1
aI1
aI1
aI16
aI1
aI2
aI1
aI2
aI7
aI1
aI8
aI2
aI1
aI5
aI5
aI2
aI5
aI1
aI1
aI2
aI5
aI2
aI1
aI1
aI1
aI1
aI1
aI2
aI1
aI1
aI1
aI1
aI1
aI1
aI1
aI1
aI1
aI2
aI1
aI1
aI1
aI1
aI3
aI1
aI3
aI1
aI1
aI3
aI1
aI1
aI1
aI3
aI1
aI1
aI1
aI2
aI3
aI1
aI1
aI1
aI1
aI1
aI2
aI2
aI5
aI1
aI2
aI1
aI2
aI3
aI1
aI6
aI5
aI9
aI2
aI2
aI3
aI1
aI2
aI2
aI1
aI1
aI1
aI4
aI2
aI1
aI2
aI1
aI2
aI1
aI1
aI1
aI1
aI1
aI2
aI1
aI1
aI1
aI1
aI1
aI1
aI1
aI1
aI1
aI1
aI3
aI5
aI7
aI4
aI1
aI1
aI1
aI7
aI1
aI1
aI2
aI5
aI1
aI8
aI1
aI1
aI2
aI2
aI2
aI2
aI1
aI1
aI1
aI2
aI3
aI9
aI1
aI4
aI1
aI1
aI1
aI1
aI5
aI1
aI1
aI6
aI1
aI1
aI1
aI4
aI1
aI1
aI2
aI3
aI1
aI1
aI2
aI2
aI1
aI1
aI1
aI2
aI1
aI2
aI3
aI1
aI16
aI1
aI5
aI2
aI1
aI3
aI1
aI5
aI1
aI3
aI4
aI6
aI1
aI2
aI5
aI1
aI1
aI1
aI1
aI3
aI3
aI1
aI1
aI3
aI1
aI1
aI2
aI2
aI2
aI1
aI1
aI4
aI2
aI1
aI1
aI1
aI1
aI1
aI1
aI2
aI1
aI1
aI1
aI1
aI4
aI1
aI1
aI1
aI1
aI2
aI1
aI2
aI2
aI1
aI2
aI2
aI1
aI4
aI1
aI1
aI1
aI1
aI1
aI4
aI2
aI1
aI2
aI1
aI3
aI1
aI1
aI5
aI1
aI1
aI17
aI5
aI2
aI1
aI1
aI1
aI1
aI4
aI1
aI1
aI1
aI19
aI1
aI1
aI1
aI1
aI1
aI2
aI1
aI3
aI2
aI2
aI1
aI1
aI4
aI1
aI3
aI1
aI1
aI6
aI2
aI19
aI1
aI2
aI1
aI1
aI2
aI1
aI1
aI3
aI1
aI1
aI2
aI1
aI2
aI2
aI1
aI3
aI2
aI2
aI1
aI1
aI2
aI1
aI1
aI1
aI3
aI2
aI1
aI1
aI1
aI1
aI1
aI1
aI3
aI2
aI1
aI2
aI1
aI3
aI1
aI3
aI1
aI1
aI2
aI1
aI2
aI2
aI1
aI1
aI1
aI4
aI2
aI1
aI1
aI1
aI2
aI1
aI1
aI1
aI1
aI1
aI2
aI2
aI2
aI1
aI1
aI5
aI1
aI3
aI3
aI11
aI2
aI1
aI1
aI1
aI1
aI1
aI1
aI2
aI2
aI1
aI1
aI1
aI3
aI1
aI1
aI1
aI6
aI1
aI1
aI3
aI2
aI3
aI4
aI22
aI1
aI1
aI21
aI1
aI2
aI1
aI1
aI1
aI1
aI1
aI2
aI1
aI2
aI9
aI1
aI2
aI5
aI1
aI1
aI1
aI2
aI2
aI1
aI1
aI1
aI1
aI7
aI5
aI1
aI1
aI2
aI1
aI4
aI2
aI6
aI1
aI1
aI1
aI2
aI2
aI1
aI2
aI1
aI1
aI2
aI2
aI2
aI1
aI1
aI1
aI4
aI2
aI1
aI4
aI2
aI1
aI1
aI3
aI3
aI1
aI1
aI17
aI1
aI3
aI1
aI1
aI1
aI1
aI4
aI1
aI2
aI1
aI3
aI8
aI1
aI1
aI5
aI5
aI2
aI1
aI2
aI3
aI6
aI1
aI1
aI1
aI1
aI2
aI1
aI1
aI6
aI1
aI2
aI1
aI1
aI2
aI1
aI1
aI3
aI1
aI4
aI1
aI1
aI1
aI1
aI1
aI1
aI3
aI3
aI2
aI1
aI2
aI1
aI13
aI11
aI5
aI1
aI2
aI2
aI2
aI5
aI1
aI1
aI2
aI1
aI1
aI2
aI3
aI11
aI5
aI7
aI2
aI1
aI2
aI2
aI4
aI2
aI7
aI4
aI4
aI2
aI1
aI2
aI3
aI2
aI2
aI4
aI1
aI1
aI1
aI1
aI1
aI1
aI1
aI1
aI1
aI5
aI1
aI1
aI3
aI2
aI2
aI2
aI2
aI2
aI3
aI1
aI1
aI1
aI1
aI1
aI4
aI5
aI6
aI1
aI1
aI4
aI1
aI6
aI1
aI1
aI1
aI1
aI2
aI1
aI2
aI1
aI2
aI3
aI2
aI2
aI1
aI3
aI4
aI4
aI2
aI1
aI1
aI1
aI5
aI3
aI1
aI1
aI1
aI1
aI1
aI4
aI1
aI1
aI1
aI1
aI2
aI2
aI1
aI1
aI1
aI1
aI1
aI2
aI2
aI8
aI5
aI1
aI1
aI1
aI2
aI2
aI2
aI1
aI1
aI3
aI3
aI3
aI1
aI5
aI1
aI4
aI2
aI5
aI14
aI3
aI1
aI8
aI1
aI1
aI1
aI2
aI1
aI6
aI2
aI2
aI3
aI2
aI3
aI5
aI1
aI1
aI1
aI1
aI1
aI1
aI1
aI1
aI1
aI4
aI1
aI6
aI1
aI3
aI1
aI3
aI1
aI1
aI2
aI1
aI3
aI1
aI2
aI1
aI1
aI3
aI1
aI1
aI1
aI10
aI1
aI1
aI7
aI1
aI2
aI2
aI1
aI2
aI13
aI1
aI1
aI8
aI5
aI1
aI1
aI4
aI2
aI1
aI5
aI3
aI1
aI2
aI3
aI1
aI1
aI1
aI1
aI1
aI1
aI4
aI1
aI1
aI5
aI1
aI1
aI1
aI1
aI3
aI1
aI2
aI1
aI1
aI1
aI1
aI1
aI2
aI1
aI1
aI1
aI1
aI1
aI3
aI3
aI1
aI3
aI1
aI1
aI2
aI1
aI2
aI1
aI2
aI2
aI2
aI4
aI1
aI1
aI1
aI1
aI1
aI2
aI1
aI4
aI15
aI2
aI1
aI9
aI4
aI1
aI6
aI1
aI2
aI3
aI2
aI2
aI1
aI3
aI4
aI1
aI1
aI3
aI1
aI2
aI1
aI4
aI1
aI2
aI1
aI1
aI9
aI1
aI3
aI1
aI1
aI1
aI3
aI2
aI2
aI2
aI2
aI1
aI2
aI1
aI1
aI7
aI2
aI1
aI1
aI2
aI1
aI1
aI1
aI4
aI3
aI1
aI1
aI3
aI2
aI16
aI52
aI25
aI36
aI14
aI25
aI30
aI3
aI21
aI31
aI6
aI3
aI1
aI15
aI1
aI1
aI1
aI2
aI2
aI3
aI5
aI1
aI14
aI2
aI2
aI1
aI5
aI1
aI7
aI1
aI2
aI1
aI3
aI14
aI1
aI2
aI2
aI1
aI1
aI1
aI3
aI1
aI1
aI2
aI3
aI1
aI4
aI4
aI1
aI3
aI1
aI1
aI1
aI8
aI1
aI4
aI1
aI1
aI1
aI2
aI2
aI3
aI4
aI2
aI19
aI10
aI2
aI2
aI1
aI6
aI1
aI1
aI1
aI2
aI1
aI1
aI1
aI1
aI1
aI1
aI1
aI1
aI2
aI11
aI2
aI3
aI1
aI2
aI2
aI1
aI2
aI2
aI1
aI2
aI2
aI1
aI1
aI4
aI4
aI2
aI1
aI1
aI1
aI1
aI1
aI1
aI2
aI2
aI1
aI1
aI3
aI1
aI1
aI3
aI6
aI1
aI3
aI1
aI3
aI5
aI3
aI1
aI5
aI2
aI1
aI3
aI14
aI10
aI1
aI7
aI1
aI1
aI6
aI1
aI4
aI1
aI1
aI1
aI1
aI4
aI11
aI5
aI3
aI1
aI1
aI7
aI6
aI2
aI1
aI1
aI2
aI6
aI1
aI1
aI13
aI6
aI12
aI7
aI11
aI1
aI1
aI3
aI12
aI1
aI1
aI4
aI6
aI6
aI1
aI1
aI1
aI1
aI1
aI1
aI1
aI1
aI1
aI4
aI1
aI1
aI1
aI1
aI2
aI1
aI1
aI14
aI1
aI1
aI3
aI3
aI1
aI2
aI1
aI5
aI2
aI1
aI2
aI2
aI1
aI3
aI1
aI1
aI4
aI5
aI2
aI1
aI1
aI1
aI3
aI1
aI3
aI1
aI1
aI7
aI1
aI1
aI1
aI1
aI1
aI4
aI2
aI3
aI2
aI1
aI2
aI4
aI1
aI2
aI1
aI1
aI13
aI1
aI2
aI7
aI1
aI2
aI1
aI1
aI1
aI1
aI2
aI1
aI1
aI1
aI6
aI1
aI3
aI1
aI1
aI2
aI2
aI1
aI2
aI1
aI3
aI1
aI2
aI1
aI1
aI1
aI1
aI1
aI1
aI4
aI4
aI2
aI1
aI5
aI6
aI1
aI5
aI2
aI1
aI3
aI6
aI7
aI1
aI2
aI1
aI2
aI1
aI3
aI1
aI3
aI2
aI1
aI1
aI4
aI1
aI1
aI3
aI1
aI7
aI1
aI1
aI1
aI1
aI6
aI2
aI1
aI2
aI1
aI11
aI1
aI1
aI2
aI1
aI1
aI1
aI1
aI1
aI1
aI2
aI3
aI1
aI1
aI4
aI1
aI1
aI2
aI4
aI1
aI2
aI3
aI2
aI2
aI1
aI1
aI1
aI1
aI1
aI1
aI1
aI1
aI2
aI1
aI1
aI1
aI3
aI1
aI3
aI1
aI2
aI4
aI1
aI2
aI1
aI3
aI1
aI12
aI2
aI4
aI1
aI2
aI2
aI1
aI3
aI1
aI3
aI1
aI3
aI3
aI1
aI1
aI1
aI1
aI1
aI1
aI1
aI1
aI6
aI1
aI1
aI1
aI1
aI3
aI1
aI1
aI1
aI1
aI11
aI1
aI1
aI2
aI1
aI1
aI2
aI2
aI3
aI1
aI1
aI1
aI2
aI18
aI4
aI2
aI2
aI1
aI4
aI1
aI7
aI3
aI1
aI1
aI1
aI1
aI7
aI1
aI3
aI2
aI3
aI2
aI4
aI2
aI1
aI4
aI3
aI1
aI4
aI7
aI1
aI1
aI2
aI1
aI5
aI6
aI3
aI4
aI1
aI1
aI1
aI3
aI1
aI1
aI1
aI2
aI1
aI1
aI1
aI1
aI1
aI3
aI2
aI1
aI1
aI2
aI1
aI4
aI1
aI5
aI1
aI1
aI1
aI1
aI1
aI1
aI1
aI7
aI3
aI2
aI1
aI1
aI2
aI1
aI1
aI1
aI2
aI10
aI1
aI1
aI1
aI1
aI1
aI1
aI2
aI2
aI1
aI3
aI1
aI1
aI5
aI1
aI3
aI1
aI1
aI2
aI2
aI2
aI5
aI2
aI1
aI2
aI1
aI1
aI1
aI1
aI1
aI4
aI2
aI1
aI3
aI4
aI1
aI1
aI4
aI1
aI13
aI1
aI5
aI1
aI5
aI1
aI1
aI1
aI1
aI1
aI1
aI1
aI2
aI3
aI2
aI4
aI1
aI1
aI1
aI2
aI4
aI1
aI1
aI5
aI1
aI6
aI8
aI1
aI1
aI1
aI2
aI1
aI2
aI9
aI2
aI1
aI2
aI1
aI1
aI1
aI1
aI1
aI1
aI2
aI9
aI1
aI1
aI1
aI5
aI1
aI5
aI5
aI1
aI1
aI2
aI3
aI1
aI1
aI3
aI1
aI2
aI1
aI1
aI1
aI1
aI1
aI3
aI2
aI1
aI1
aI2
aI1
aI3
aI21
aI3
aI1
aI2
aI5
aI1
aI1
aI1
aI5
aI1
aI1
aI1
aI2
aI3
aI1
aI1
aI2
aI1
aI1
aI1
aI1
aI1
aI1
aI2
aI1
aI1
aI2
aI1
aI2
aI5
aI2
aI4
aI1
aI2
aI4
aI1
aI1
aI2
aI1
aI1
aI1
aI1
aI23
aI2
aI2
aI2
aI1
aI1
aI1
aI1
aI1
aI1
aI2
aI1
aI2
aI1
aI3
aI1
aI1
aI3
aI2
aI3
aI1
aI1
aI3
aI3
aI1
aI2
aI1
aI1
aI1
aI2
aI2
aI2
aI3
aI1
aI1
aI1
aI1
aI1
aI1
aI1
aI1
aI1
aI1
aI1
aI1
aI1
aI1
aI2
aI2
aI2
aI3
aI1
aI5
aI1
aI2
aI5
aI32
aI5
aI1
aI3
aI2
aI2
aI2
aI4
aI2
aI2
aI1
aI1
aI2
aI3
aI2
aI3
aI1
aI1
aI1
aI3
aI4
aI5
aI1
aI4
aI2
aI1
aI5
aI1
aI1
aI1
aI2
aI2
aI7
aI3
aI1
aI1
aI2
aI1
aI2
aI2
aI1
aI1
aI2
aI9
aI3
aI1
aI3
aI2
aI2
aI2
aI1
aI1
aI1
aI1
aI1
aI1
aI1
aI2
aI3
aI1
aI1
aI2
aI1
aI1
aI1
aI1
aI1
aI1
aI1
aI1
aI1
aI3
aI1
aI1
aI2
aI2
aI6
aI1
aI1
aI2
aI1
aI1
aI1
aI1
aI1
aI1
aI1
aI1
aI2
aI3
aI2
aI2
aI2
aI1
aI2
aI2
aI3
aI1
aI1
aI2
aI5
aI2
aI1
aI1
aI2
aI1
aI1
aI2
aI6
aI1
aI1
aI4
aI1
aI1
aI1
aI1
aI1
aI4
aI1
aI7
aI1
aI1
aI2
aI3
aI1
aI3
aI4
aI1
aI1
aI1
aI1
aI1
aI1
aI1
aI4
aI2
aI1
aI2
aI1
aI1
aI1
aI1
aI1
aI1
aI1
aI4
aI9
aI1
aI2
aI1
aI1
aI1
aI1
aI1
aI1
aI1
aI1
aI9
aI1
aI9
aI3
aI1
aI1
aI2
aI1
aI4
aI1
aI1
aI2
aI1
aI2
aI3
aI1
aI2
aI1
aI2
aI2
aI1
aI1
aI1
aI1
aI2
aI2
aI1
aI1
aI1
aI1
aI3
aI1
aI3
aI4
aI2
aI2
aI1
aI1
aI1
aI2
aI1
aI4
aI2
aI1
aI1
aI3
aI1
aI7
aI1
aI1
aI1
aI1
aI2
aI1
aI1
aI1
aI1
aI1
aI1
aI2
aI1
aI3
aI3
aI1
aI1
aI3
aI2
aI5
aI2
aI3
aI1
aI6
aI10
aI1
aI1
aI1
aI2
aI2
aI1
aI1
aI2
aI1
aI1
aI1
aI2
aI1
aI1
aI1
aI4
aI2
aI7
aI2
aI2
aI2
aI1
aI1
aI17
aI2
aI2
aI19
aI2
aI2
aI8
aI4
aI3
aI3
aI2
aI4
aI2
aI2
aI10
aI3
aI2
aI6
aI1
aI2
aI4
aI1
aI4
aI15
aI2
aI3
aI1
aI4
aI2
aI6
aI1
aI6
aI4
aI1
aI1
aI1
aI2
aI2
aI3
aI1
aI7
aI1
aI1
aI2
aI1
aI1
aI1
aI3
aI3
aI2
aI1
aI1
aI1
aI2
aI1
aI4
aI1
aI1
aI2
aI2
aI1
aI1
aI1
aI2
aI5
aI1
aI1
aI4
aI1
aI5
aI10
aI1
aI2
aI1
aI2
aI2
aI1
aI1
aI7
aI1
aI2
aI2
aI2
aI13
aI1
aI2
aI1
aI2
aI1
aI2
aI2
aI1
aI2
aI6
aI1
aI2
aI1
aI1
aI3
aI3
aI2
aI1
aI1
aI1
aI5
aI1
aI6
aI3
aI1
aI2
aI2
aI3
aI1
aI2
aI1
aI1
aI3
aI2
aI1
aI1
aI2
aI1
aI1
aI1
aI1
aI1
aI1
aI2
aI1
aI1
aI1
aI1
aI1
aI1
aI1
aI1
aI1
aI1
aI1
aI1
aI1
aI1
aI18
aI1
aI4
aI1
aI1
aI8
aI1
aI2
aI1
aI1
aI5
aI2
aI2
aI1
aI4
aI2
aI2
aI4
aI1
aI1
aI2
aI1
aI3
aI1
aI1
aI1
aI1
aI2
aI4
aI1
aI1
aI1
aI1
aI1
aI1
aI1
aI1
aI2
aI1
aI1
aI2
aI2
aI2
aI2
aI1
aI2
aI2
aI5
aI6
aI4
aI5
aI4
aI11
aI1
aI1
aI1
aI1
aI3
aI1
aI2
aI1
aI1
aI19
aI2
aI2
aI14
aI3
aI3
aI4
aI1
aI1
aI4
aI8
aI24
aI2
aI7
aI3
aI3
aI5
aI1
aI6
aI1
aI3
aI16
aI2
aI8
aI1
aI1
aI1
aI1
aI1
aI1
aI4
aI1
aI1
aI1
aI3
aI2
aI1
aI1
aI1
aI1
aI1
aI9
aI1
aI1
aI1
aI7
aI8
aI8
aI4
aI1
aI1
aI5
aI1
aI1
aI5
aI1
aI1
aI3
aI2
aI1
aI2
aI1
aI2
aI2
aI1
aI1
aI2
aI1
aI1
aI3
aI1
aI1
aI4
aI2
aI1
aI1
aI1
aI1
aI1
aI2
aI1
aI1
aI3
aI2
aI1
aI1
aI1
aI1
aI11
aI1
aI1
aI1
aI1
aI1
aI6
aI2
aI3
aI2
aI1
aI3
aI1
aI2
aI1
aI1
aI2
aI4
aI1
aI9
aI1
aI1
aI1
aI2
aI2
aI2
aI1
aI2
aI4
aI2
aI1
aI2
aI2
aI3
aI1
aI3
aI6
aI5
aI8
aI2
aI3
aI2
aI1
aI1
aI8
aI1
aI1
aI1
aI5
aI3
aI1
aI1
aI3
aI2
aI3
aI1
aI2
aI1
aI7
aI3
aI2
aI1
aI3
aI1
aI3
aI1
aI3
aI1
aI2
aI4
aI2
aI1
aI5
aI3
aI3
aI2
aI2
aI13
aI1
aI1
aI1
aI1
aI1
aI2
aI2
aI2
aI1
aI1
aI1
aI1
aI1
aI1
aI2
aI1
aI2
aI1
aI3
aI1
aI1
aI1
aI1
aI2
aI2
aI3
aI1
aI2
aI5
aI12
aI2
aI2
aI1
aI3
aI4
aI1
aI1
aI1
aI1
aI1
aI2
aI1
aI1
aI2
aI2
aI2
aI2
aI1
aI1
aI6
aI1
aI1
aI10
aI4
aI1
aI4
aI2
aI1
aI2
aI4
aI10
aI4
aI21
aI5
aI1
aI3
aI2
aI2
aI2
aI4
aI3
aI1
aI1
aI1
aI1
aI1
aI2
aI1
aI1
aI1
aI1
aI1
aI1
aI1
aI10
aI3
aI1
aI1
aI2
aI9
aI4
aI4
aI1
aI9
aI1
aI1
aI1
aI6
aI1
aI1
aI1
aI1
aI1
aI1
aI1
aI2
aI1
aI5
aI1
aI1
aI2
aI2
aI2
aI13
aI8
aI3
aI2
aI6
aI4
aI3
aI1
aI4
aI1
aI1
aI5
aI23
aI2
aI15
aI5
aI9
aI1
aI17
aI1
aI2
aI1
aI1
aI1
aI1
aI14
aI1
aI1
aI2
aI3
aI1
aI4
aI5
aI3
aI4
aI1
aI7
aI1
aI1
aI33
aI1
aI1
aI24
aI1
aI5
aI11
aI3
aI3
aI2
aI1
aI1
aI1
aI1
aI21
aI1
aI1
aI2
aI1
aI16
aI1
aI3
aI5
aI1
aI1
aI2
aI1
aI1
aI3
aI13
aI26
aI9
aI3
aI3
aI2
aI12
aI1
aI1
aI3
aI2
aI2
aI1
aI1
aI1
aI1
aI1
aI3
aI1
aI3
aI1
aI1
aI15
aI1
aI1
aI1
aI1
aI2
aI3
aI2
aI3
aI3
aI1
aI2
aI2
aI2
aI1
aI1
aI3
aI2
aI1
aI2
aI1
aI1
aI2
aI3
aI2
aI1
aI1
aI1
aI1
aI1
aI2
aI3
aI1
aI2
aI1
aI1
aI4
aI1
aI2
aI1
aI1
aI2
aI2
aI1
aI12
aI1
aI1
aI2
aI1
aI1
aI1
aI1
aI1
aI1
aI1
aI8
aI2
aI1
aI2
aI1
aI8
aI1
aI1
aI1
aI1
aI1
aI1
aI3
aI3
aI7
aI1
aI4
aI1
aI1
aI2
aI1
aI1
aI11
aI1
aI1
aI4
aI4
aI1
aI1
aI1
aI2
aI1
aI6
aI1
aI2
aI1
aI1
aI1
aI2
aI1
aI1
aI1
aI1
aI10
aI2
aI1
aI2
aI5
aI4
aI1
aI1
aI3
aI2
aI1
aI1
aI1
aI1
aI2
aI1
aI1
aI11
aI4
aI4
aI1
aI1
aI2
aI9
aI1
aI1
aI5
aI4
aI2
aI1
aI1
aI1
aI2
aI1
aI1
aI6
aI1
aI1
aI1
aI1
aI1
aI1
aI6
aI2
aI2
aI2
aI1
aI2
aI6
aI1
aI1
aI1
aI1
aI3
aI2
aI2
aI2
aI2
aI1
aI1
aI30
aI5
aI1
aI2
aI2
aI1
aI1
aI2
aI1
aI2
aI1
aI1
aI2
aI5
aI1
aI3
aI4
aI1
aI1
aI2
aI1
aI2
aI1
aI1
aI1
aI1
aI1
aI1
aI1
aI1
aI1
aI4
aI1
aI2
aI1
aI1
aI1
aI1
aI1
aI1
aI1
aI6
aI1
aI1
aI1
aI3
aI2
aI1
aI16
aI4
aI1
aI1
aI2
aI1
aI1
aI1
aI1
aI3
aI30
aI1
aI2
aI8
aI3
aI7
aI1
aI5
aI1
aI1
aI1
aI2
aI1
aI2
aI2
aI8
aI1
aI1
aI2
aI2
aI1
aI1
aI1
aI12
aI6
aI8
aI1
aI2
aI1
aI1
aI13
aI9
aI20
aI2
aI1
aI73
aI2
aI2
aI3
aI11
aI1
aI13
aI1
aI1
aI1
aI46
aI7
aI2
aI1
aI12
aI6
aI2
aI1
aI1
aI2
aI4
aI1
aI1
aI1
aI2
aI1
aI1
aI4
aI2
aI1
aI1
aI2
aI1
aI1
aI3
aI1
aI1
aI3
aI1
aI3
aI1
aI4
aI2
aI2
aI2
aI1
aI22
aI7
aI1
aI1
aI2
aI1
aI1
aI1
aI1
aI1
aI3
aI2
aI2
aI1
aI1
aI1
aI12
aI4
aI1
aI1
aI4
aI3
aI3
aI7
aI1
aI1
aI2
aI1
aI2
aI1
aI1
aI2
aI3
aI3
aI1
aI1
aI1
aI5
aI3
aI2
aI2
aI1
aI1
aI2
aI2
aI1
aI1
aI1
aI1
aI1
aI2
aI4
aI2
aI1
aI1
aI1
aI2
aI1
aI1
aI1
aI4
aI1
aI1
aI1
aI2
aI1
aI1
aI1
aI2
aI4
aI1
aI2
aI2
aI2
aI7
aI1
aI1
aI14
aI4
aI2
aI1
aI2
aI2
aI1
aI1
aI1
aI1
aI2
aI8
aI1
aI1
aI2
aI1
aI2
aI1
aI3
aI8
aI1
aI1
aI16
aI1
aI3
aI1
aI1
aI2
aI1
aI1
aI12
aI2
aI6
aI2
aI3
aI1
aI5
aI4
aI1
aI2
aI1
aI1
aI2
aI1
aI1
aI1
aI2
aI2
aI1
aI1
aI1
aI1
aI2
aI2
aI1
aI1
aI1
aI5
aI1
aI2
aI3
aI1
aI1
aI2
aI2
aI2
aI1
aI3
aI2
aI1
aI1
aI1
aI2
aI1
aI5
aI1
aI1
aI1
aI2
aI3
aI1
aI1
aI1
aI1
aI1
aI1
aI1
aI1
aI6
aI1
aI1
aI2
aI1
aI2
aI1
aI6
aI3
aI3
aI1
aI1
aI3
aI2
aI2
aI1
aI1
aI2
aI1
aI3
aI7
aI1
aI3
aI5
aI2
aI1
aI1
aI1
aI7
aI3
aI1
aI4
aI1
aI38
aI1
aI1
aI1
aI1
aI1
aI1
aI1
aI1
aI1
aI1
aI2
aI1
aI3
aI1
aI1
aI1
aI1
aI1
aI1
aI1
aI5
aI1
aI1
aI1
aI1
aI4
aI4
aI1
aI1
aI1
aI1
aI1
aI1
aI6
aI1
aI1
aI1
aI1
aI1
aI1
aI5
aI1
aI1
aI6
aI1
aI2
aI1
aI1
aI2
aI3
aI1
aI1
aI2
aI2
aI13
aI4
aI2
aI2
aI3
aI1
aI1
aI6
aI13
aI1
aI5
aI10
aI2
aI2
aI2
aI2
aI3
aI1
aI5
aI8
aI2
aI5
aI8
aI6
aI6
aI2
aI6
aI9
aI3
aI3
aI4
aI2
aI14
aI1
aI1
aI2
aI1
aI1
aI5
aI1
aI1
aI1
aI1
aI4
aI3
aI1
aI1
aI1
aI1
aI2
aI4
aI3
aI1
aI4
aI5
aI1
aI3
aI2
aI2
aI1
aI1
aI3
aI1
aI1
aI1
aI1
aI1
aI3
aI2
aI1
aI2
aI1
aI1
aI1
aI2
aI1
aI1
aI2
aI1
aI1
aI2
aI1
aI5
aI7
aI1
aI3
aI1
aI1
aI1
aI1
aI2
aI1
aI1
aI1
aI4
aI1
aI1
aI5
aI1
aI3
aI1
aI25
aI2
aI3
aI2
aI2
aI1
aI1
aI2
aI3
aI2
aI4
aI1
aI1
aI1
aI3
aI1
aI2
aI2
aI1
aI1
aI7
aI1
aI1
aI2
aI1
aI2
aI1
aI2
aI2
aI1
aI1
aI3
aI2
aI2
aI2
aI1
aI2
aI5
aI1
aI1
aI2
aI1
aI6
aI1
aI1
aI1
aI2
aI1
aI2
aI2
aI1
aI5
aI2
aI1
aI8
aI1
aI1
aI2
aI1
aI1
aI1
aI1
aI4
aI1
aI3
aI2
aI18
aI1
aI3
aI3
aI1
aI2
aI1
aI2
aI1
aI3
aI2
aI2
aI1
aI1
aI1
aI2
aI1
aI1
aI1
aI6
aI3
aI1
aI1
aI1
aI1
aI2
aI1
aI1
aI1
aI1
aI1
aI3
aI1
aI1
aI1
aI1
aI1
aI1
aI2
aI1
aI5
aI4
aI1
aI3
aI7
aI4
aI1
aI12
aI6
aI1
aI5
aI3
aI3
aI1
aI2
aI1
aI5
aI1
aI1
aI3
aI6
aI1
aI1
aI4
aI1
aI1
aI4
aI8
aI1
aI1
aI1
aI2
aI1
aI3
aI1
aI4
aI1
aI1
aI4
aI2
aI1
aI2
aI1
aI1
aI2
aI3
aI2
aI3
aI1
aI3
aI2
aI1
aI3
aI3
aI1
aI6
aI1
aI2
aI5
aI2
aI2
aI4
aI1
aI1
aI1
aI3
aI2
aI11
aI2
aI1
aI3
aI3
aI1
aI2
aI1
aI2
aI1
aI1
aI1
aI1
aI1
aI1
aI1
aI1
aI1
aI1
aI1
aI6
aI2
aI1
aI2
aI1
aI1
aI1
aI1
aI3
aI2
aI2
aI19
aI2
aI5
aI3
aI5
aI4
aI4
aI1
aI3
aI1
aI1
aI4
aI6
aI4
aI2
aI2
aI1
aI3
aI1
aI2
aI2
aI9
aI3
aI2
aI1
aI1
aI3
aI1
aI13
aI3
aI1
aI1
aI1
aI2
aI1
aI1
aI7
aI9
aI4
aI3
aI1
aI1
aI1
aI2
aI1
aI3
aI2
aI1
aI3
aI1
aI1
aI8
aI3
aI32
aI3
aI29
aI3
aI3
aI2
aI2
aI1
aI5
aI1
aI1
aI3
aI1
aI2
aI1
aI1
aI1
aI1
aI4
aI1
aI28
aI26
aI1
aI17
aI1
aI13
aI3
aI1
aI2
aI6
aI2
aI4
aI3
aI1
aI1
aI1
aI2
aI1
aI25
aI8
aI1
aI1
aI1
aI4
aI1
aI8
aI1
aI8
aI5
aI1
aI1
aI4
aI1
aI3
aI4
aI1
aI1
aI2
aI1
aI2
aI1
aI2
aI1
aI1
aI1
aI1
aI2
aI3
aI16
aI1
aI3
aI4
aI19
aI1
aI1
aI1
aI1
aI8
aI4
aI4
aI1
aI6
aI3
aI2
aI1
aI1
aI1
aI3
aI1
aI1
aI1
aI3
aI1
aI8
aI2
aI1
aI1
aI2
aI1
aI1
aI1
aI4
aI2
aI3
aI1
aI2
aI1
aI1
aI1
aI1
aI2
aI1
aI5
aI1
aI5
aI2
aI1
aI1
aI1
aI9
aI2
aI1
aI2
aI1
aI2
aI1
aI1
aI1
aI4
aI1
aI2
aI1
aI3
aI2
aI5
aI4
aI4
aI1
aI2
aI5
aI3
aI3
aI1
aI2
aI1
aI3
aI1
aI2
aI1
aI1
aI1
aI1
aI1
aI1
aI1
aI1
aI2
aI1
aI10
aI1
aI1
aI1
aI1
aI2
aI2
aI1
aI2
aI1
aI2
aI1
aI3
aI1
aI10
aI1
aI3
aI1
aI2
aI4
aI1
aI1
aI1
aI1
aI2
aI1
aI1
aI1
aI3
aI2
aI3
aI2
aI2
aI1
aI1
aI2
aI3
aI1
aI1
aI1
aI2
aI1
aI1
aI13
aI20
aI2
aI1
aI2
aI2
aI1
aI3
aI1
aI1
aI5
aI1
aI1
aI1
aI1
aI5
aI1
aI1
aI1
aI6
aI2
aI2
aI1
aI1
aI1
aI1
aI1
aI1
aI1
aI1
aI1
aI2
aI1
aI1
aI2
aI1
aI1
aI1
aI12
aI2
aI1
aI1
aI1
aI1
aI1
aI1
aI3
aI1
aI2
aI1
aI3
aI3
aI2
aI1
aI1
aI1
aI2
aI1
aI3
aI5
aI14
aI1
aI4
aI2
aI6
aI2
aI2
aI2
aI1
aI1
aI1
aI1
aI2
aI1
aI9
aI1
aI1
aI1
aI9
aI1
aI3
aI1
aI16
aI6
aI1
aI3
aI3
aI1
aI1
aI2
aI1
aI1
aI1
aI1
aI3
aI2
aI2
aI1
aI2
aI1
aI1
aI3
aI4
aI2
aI6
aI2
aI1
aI1
aI1
aI1
aI1
aI2
aI1
aI2
aI1
aI1
aI3
aI3
aI1
aI1
aI1
aI1
aI1
aI2
aI1
aI2
aI1
aI1
aI1
aI2
aI1
aI1
aI2
aI1
aI1
aI2
aI5
aI1
aI1
aI1
aI1
aI1
aI1
aI1
aI1
aI9
aI1
aI1
aI1
aI1
aI1
aI1
aI5
aI6
aI14
aI1
aI2
aI2
aI1
aI1
aI1
aI1
aI1
aI1
aI37
aI2
aI7
aI3
aI1
aI1
aI2
aI1
aI1
aI3
aI10
aI1
aI4
aI1
aI2
aI1
aI1
aI1
aI2
aI1
aI2
aI1
aI2
aI10
aI5
aI5
aI7
aI5
aI1
aI2
aI3
aI4
aI1
aI2
aI1
aI16
aI5
aI1
aI1
aI2
aI2
aI2
aI1
aI3
aI1
aI2
aI2
aI3
aI4
aI1
aI1
aI1
aI3
aI1
aI1
aI2
aI2
aI3
aI1
aI1
aI1
aI1
aI1
aI1
aI2
aI1
aI1
aI1
aI1
aI3
aI1
aI1
aI3
aI1
aI2
aI1
aI1
aI2
aI2
aI2
aI5
aI1
aI1
aI1
aI7
aI1
aI1
aI1
aI3
aI1
aI1
aI1
aI7
aI11
aI1
aI1
aI4
aI1
aI1
aI2
aI2
aI3
aI1
aI2
aI1
aI1
aI1
aI1
aI1
aI1
aI1
aI3
aI2
aI1
aI4
aI1
aI1
aI1
aI1
aI2
aI1
aI2
aI1
aI6
aI2
aI1
aI5
aI1
aI1
aI1
aI1
a.