(lp0
(S'good'
p1
I9
tp2
a(S'go'
p3
I8
tp4
a(S'one'
p5
I8
tp6
a(S'art'
p7
I8
tp8
a(S'gets'
p9
I8
tp10
a(S'told'
p11
I7
tp12
a(S'frisco'
p13
I7
tp14
a(S'dance'
p15
I6
tp16
a(S'natural'
p17
I6
tp18
a(S'loves'
p19
I6
tp20
a(S'brazil'
p21
I6
tp22
a(S'woohoo'
p23
I6
tp24
a(S'stars'
p25
I6
tp26
a(S'body'
p27
I5
tp28
a(S'20'
p29
I5
tp30
a(S'food'
p31
I5
tp32
a(S'girl'
p33
I5
tp34
a(S'00'
p35
I5
tp36
a(S'yes'
p37
I5
tp38
a(S'5'
p39
I5
tp40
a(S'would'
p41
I4
tp42
a(S'work'
p43
I4
tp44
a(S'mexican'
p45
I4
tp46
a(S'friend'
p47
I4
tp48
a(S'leave'
p49
I4
tp50
a(S'fusion'
p51
I4
tp52
a(S'music'
p53
I4
tp54
a(S'vegas'
p55
I3
tp56
a(S'two'
p57
I3
tp58
a(S'club'
p59
I3
tp60
a(S'rather'
p61
I3
tp62
a(S'rainforest'
p63
I3
tp64
a(S'really'
p65
I3
tp66
a(S'story'
p67
I3
tp68
a(S'could'
p69
I3
tp70
a(S'trance'
p71
I3
tp72
a(S'also'
p73
I3
tp74
a(S'lucky'
p75
I3
tp76
a(S'artist'
p77
I3
tp78
a(S'artists'
p79
I3
tp80
a(S'stripper'
p81
I3
tp82
a(S'keane'
p83
I3
tp84
a(S'stoner'
p85
I2
tp86
a(S'bacon'
p87
I2
tp88
a(S'along'
p89
I2
tp90
a(S'experience'
p91
I2
tp92
a(S'love'
p93
I2
tp94
a(S'foodie'
p95
I2
tp96
a(S'use'
p97
I2
tp98
a(S'tell'
p99
I2
tp100
a.